target datalayout = "e-m:e-p270:32:32-p271:32:32-p272:64:64-i64:64-i128:128-f80:128-n8:16:32:64-S128"
target triple = "x86_64-pc-linux-gnu"

; Function Attrs: null_pointer_is_valid sspstrong uwtable
define i32 @ws_cmac_buffer(i32 noundef %0, ptr noundef %1, ptr noundef %2, i64 noundef %3, ptr noundef %4, i64 noundef %5) #0 {
  %7 = alloca i32, align 4
  %8 = alloca i32, align 4
  %9 = alloca ptr, align 8
  %10 = alloca ptr, align 8
  %11 = alloca i64, align 8
  %12 = alloca ptr, align 8
  %13 = alloca i64, align 8
  %14 = alloca ptr, align 8
  %15 = alloca i32, align 4
  %16 = alloca i32, align 4
  store i32 %0, ptr %8, align 4
  store ptr %1, ptr %9, align 8
  store ptr %2, ptr %10, align 8
  store i64 %3, ptr %11, align 8
  store ptr %4, ptr %12, align 8
  store i64 %5, ptr %13, align 8
  call void @llvm.lifetime.start.p0(i64 8, ptr %14) #9
  call void @llvm.lifetime.start.p0(i64 4, ptr %15) #9
  %17 = load i32, ptr %8, align 4
  %18 = call i32 @gcry_mac_open(ptr noundef %14, i32 noundef %17, i32 noundef 0, ptr noundef null)
  store i32 %18, ptr %15, align 4
  %19 = load i32, ptr %15, align 4
  %20 = icmp ne i32 %19, 0
  br i1 %20, label %21, label %23

21:                                               ; preds = %6
  %22 = load i32, ptr %15, align 4
  store i32 %22, ptr %7, align 4
  store i32 1, ptr %16, align 4
  br label %43

23:                                               ; preds = %6
  %24 = load ptr, ptr %14, align 8
  %25 = load ptr, ptr %12, align 8
  %26 = load i64, ptr %13, align 8
  %27 = call i32 @gcry_mac_setkey(ptr noundef %24, ptr noundef %25, i64 noundef %26)
  store i32 %27, ptr %15, align 4
  %28 = load i32, ptr %15, align 4
  %29 = icmp ne i32 %28, 0
  br i1 %29, label %30, label %33

30:                                               ; preds = %23
  %31 = load ptr, ptr %14, align 8
  call void @gcry_mac_close(ptr noundef %31)
  %32 = load i32, ptr %15, align 4
  store i32 %32, ptr %7, align 4
  store i32 1, ptr %16, align 4
  br label %43

33:                                               ; preds = %23
  %34 = load ptr, ptr %14, align 8
  %35 = load ptr, ptr %10, align 8
  %36 = load i64, ptr %11, align 8
  %37 = call i32 @gcry_mac_write(ptr noundef %34, ptr noundef %35, i64 noundef %36)
  %38 = load ptr, ptr %14, align 8
  %39 = load ptr, ptr %9, align 8
  %40 = call i32 @gcry_mac_read(ptr noundef %38, ptr noundef %39, ptr noundef %13)
  store i32 %40, ptr %15, align 4
  %41 = load ptr, ptr %14, align 8
  call void @gcry_mac_close(ptr noundef %41)
  %42 = load i32, ptr %15, align 4
  store i32 %42, ptr %7, align 4
  store i32 1, ptr %16, align 4
  br label %43

43:                                               ; preds = %33, %30, %21
  call void @llvm.lifetime.end.p0(i64 4, ptr %15) #9
  call void @llvm.lifetime.end.p0(i64 8, ptr %14) #9
  %44 = load i32, ptr %7, align 4
  ret i32 %44
}