; Function Attrs: null_pointer_is_valid sspstrong uwtable
define i32 @ws_cmac_buffer(i32 noundef %0, ptr noundef %1, ptr noundef %2, i64 noundef %3, ptr noundef %4, i64 noundef %5) local_unnamed_addr #0 {
  %7 = alloca i64, align 8
  %8 = alloca ptr, align 8
  store i64 %5, ptr %7, align 8
  call void @llvm.lifetime.start.p0(i64 8, ptr nonnull %8) #10
  %9 = call i32 @gcry_mac_open(ptr noundef nonnull %8, i32 noundef %0, i32 noundef 0, ptr noundef null)
  %.not = icmp eq i32 %9, 0
  br i1 %.not, label %10, label %20

10:                                               ; preds = %6
  %11 = load ptr, ptr %8, align 8
  %12 = load i64, ptr %7, align 8
  %13 = call i32 @gcry_mac_setkey(ptr noundef %11, ptr noundef %4, i64 noundef %12)
  %.not12 = icmp eq i32 %13, 0
  %14 = load ptr, ptr %8, align 8
  br i1 %.not12, label %15, label %.sink.split

15:                                               ; preds = %10
  %16 = call i32 @gcry_mac_write(ptr noundef %14, ptr noundef %2, i64 noundef %3)
  %17 = load ptr, ptr %8, align 8
  %18 = call i32 @gcry_mac_read(ptr noundef %17, ptr noundef %1, ptr noundef nonnull %7)
  %19 = load ptr, ptr %8, align 8
  br label %.sink.split

.sink.split:                                      ; preds = %10, %15
  %.sink = phi ptr [ %19, %15 ], [ %14, %10 ]
  %.0.ph = phi i32 [ %18, %15 ], [ %13, %10 ]
  call void @gcry_mac_close(ptr noundef %.sink)
  br label %20

20:                                               ; preds = %.sink.split, %6
  %.0 = phi i32 [ %9, %6 ], [ %.0.ph, %.sink.split ]
  call void @llvm.lifetime.end.p0(i64 8, ptr nonnull %8) #10
  ret i32 %.0
}